; Function Attrs: mustprogress uwtable
define internal void @"_ZN9QtPrivate18QFunctorSlotObjectIZN19WiresharkMainWindow23addFollowStreamMenuItemEPKvPvS4_E3$_0Li0ENS_4ListIJEEEvE4implEiPNS_15QSlotObjectBaseEP7QObjectPS4_Pb"(i32 noundef %0, ptr noundef %1, ptr nocapture readnone %2, ptr nocapture readnone %3, ptr nocapture readnone %4) #0 align 2 {
  switch i32 %0, label %13 [
    i32 0, label %6
    i32 1, label %9
  ]

6:                                                ; preds = %5
  %7 = icmp eq ptr %1, null
  br i1 %7, label %13, label %8

8:                                                ; preds = %6
  tail call void @_ZdlPv(ptr noundef nonnull %1) #27
  br label %13

9:                                                ; preds = %5
  %10 = getelementptr inbounds i8, ptr %1, i64 16
  %.val = load ptr, ptr %10, align 8
  %11 = getelementptr i8, ptr %1, i64 24
  %.val4 = load ptr, ptr %11, align 8
  %12 = tail call i32 @get_follow_proto_id(ptr noundef %.val4)
  tail call void @_ZN19WiresharkMainWindow22openFollowStreamDialogEi(ptr noundef nonnull align 8 dereferenceable(520) %.val, i32 noundef %12)
  br label %13

13:                                               ; preds = %6, %8, %9, %5
  ret void
}